target datalayout = "e-m:e-p270:32:32-p271:32:32-p272:64:64-i64:64-i128:128-f80:128-n8:16:32:64-S128"
target triple = "x86_64-pc-linux-gnu"

%struct.H5O_pline_t = type { %struct.H5O_shared_t, i32, i64, i64, ptr }
%struct.H5O_shared_t = type { i32, ptr, i32, %union.anon }
%union.anon = type { %struct.H5O_mesg_loc_t }
%struct.H5O_mesg_loc_t = type { i32, i64 }

@H5_libterm_g = external global i8, align 1
@.str.1 = private unnamed_addr constant [101 x i8] c"generated/home/dtcxzyw/WorkSpace/Projects/compilers/llvm-opt-benchmark/bench/hdf5/hdf5/src/H5Pocpl.c\00", align 1
@H5E_FUNC_g = external global i64, align 8
@H5E_CANTINIT_g = external global i64, align 8
@H5P_init_g = external global i8, align 1
@.str.3 = private unnamed_addr constant [32 x i8] c"interface initialization failed\00", align 1
@H5E_CANTSET_g = external global i64, align 8
@H5E_PLIST_g = external global i64, align 8
@H5E_CANTGET_g = external global i64, align 8
@__func__.H5P_modify_filter = private unnamed_addr constant [18 x i8] c"H5P_modify_filter\00", align 1
@.str.19 = private unnamed_addr constant [6 x i8] c"pline\00", align 1
@.str.20 = private unnamed_addr constant [19 x i8] c"can't get pipeline\00", align 1
@H5E_PLINE_g = external global i64, align 8
@.str.21 = private unnamed_addr constant [33 x i8] c"unable to add filter to pipeline\00", align 1
@.str.22 = private unnamed_addr constant [19 x i8] c"can't set pipeline\00", align 1

; Function Attrs: nounwind uwtable
define i32 @H5P_modify_filter(ptr noundef %0, i32 noundef %1, i32 noundef %2, i64 noundef %3, ptr noundef %4) #0 {
  %6 = alloca ptr, align 8
  %7 = alloca i32, align 4
  %8 = alloca i32, align 4
  %9 = alloca i64, align 8
  %10 = alloca ptr, align 8
  %11 = alloca %struct.H5O_pline_t, align 8
  %12 = alloca i32, align 4
  %13 = alloca i8, align 1
  store ptr %0, ptr %6, align 8, !tbaa !16
  store i32 %1, ptr %7, align 4, !tbaa !8
  store i32 %2, ptr %8, align 4, !tbaa !8
  store i64 %3, ptr %9, align 8, !tbaa !14
  store ptr %4, ptr %10, align 8, !tbaa !18
  call void @llvm.lifetime.start.p0(i64 72, ptr %11) #10
  call void @llvm.lifetime.start.p0(i64 4, ptr %12) #10
  store i32 0, ptr %12, align 4, !tbaa !8
  call void @llvm.lifetime.start.p0(i64 1, ptr %13) #10
  store i8 0, ptr %13, align 1, !tbaa !10
  %14 = load i8, ptr @H5P_init_g, align 1, !tbaa !10, !range !12, !noundef !13
  %15 = trunc i8 %14 to i1
  br i1 %15, label %20, label %16

16:                                               ; preds = %5
  %17 = load i8, ptr @H5_libterm_g, align 1, !tbaa !10, !range !12, !noundef !13
  %18 = trunc i8 %17 to i1
  %19 = xor i1 %18, true
  br label %20

20:                                               ; preds = %16, %5
  %21 = phi i1 [ false, %5 ], [ %19, %16 ]
  %22 = xor i1 %21, true
  %23 = xor i1 %22, true
  %24 = zext i1 %23 to i32
  %25 = sext i32 %24 to i64
  %26 = call i64 @llvm.expect.i64(i64 %25, i64 0)
  %27 = icmp ne i64 %26, 0
  br i1 %27, label %28, label %51

28:                                               ; preds = %20
  store i8 1, ptr @H5P_init_g, align 1, !tbaa !10
  %29 = call i32 @H5P__init_package()
  %30 = icmp slt i32 %29, 0
  br i1 %30, label %31, label %50

31:                                               ; preds = %28
  store i8 0, ptr @H5P_init_g, align 1, !tbaa !10
  br label %32

32:                                               ; preds = %31
  br label %33

33:                                               ; preds = %32
  br label %34

34:                                               ; preds = %33
  %35 = load i64, ptr @H5E_FUNC_g, align 8, !tbaa !14
  %36 = load i64, ptr @H5E_CANTINIT_g, align 8, !tbaa !14
  %37 = call i32 (ptr, ptr, i32, i64, i64, ptr, ...) @H5E_printf_stack(ptr noundef @.str.1, ptr noundef @__func__.H5P_modify_filter, i32 noundef 485, i64 noundef %35, i64 noundef %36, ptr noundef @.str.3)
  br label %38

38:                                               ; preds = %34
  br label %39

39:                                               ; preds = %38
  store i8 1, ptr %13, align 1, !tbaa !10
  %40 = load i8, ptr %13, align 1, !tbaa !10, !range !12, !noundef !13
  %41 = trunc i8 %40 to i1
  %42 = zext i1 %41 to i8
  store i8 %42, ptr %13, align 1, !tbaa !10
  br label %43

43:                                               ; preds = %39
  br label %44

44:                                               ; preds = %43
  br label %45

45:                                               ; preds = %44
  store i32 -1, ptr %12, align 4, !tbaa !8
  br label %139

46:                                               ; No predecessors!
  br label %47

47:                                               ; preds = %46
  br label %48

48:                                               ; preds = %47
  br label %49

49:                                               ; preds = %48
  br label %50

50:                                               ; preds = %49, %28
  br label %51

51:                                               ; preds = %50, %20
  %52 = load i8, ptr @H5P_init_g, align 1, !tbaa !10, !range !12, !noundef !13
  %53 = trunc i8 %52 to i1
  br i1 %53, label %58, label %54

54:                                               ; preds = %51
  %55 = load i8, ptr @H5_libterm_g, align 1, !tbaa !10, !range !12, !noundef !13
  %56 = trunc i8 %55 to i1
  %57 = xor i1 %56, true
  br label %58

58:                                               ; preds = %54, %51
  %59 = phi i1 [ true, %51 ], [ %57, %54 ]
  %60 = xor i1 %59, true
  %61 = xor i1 %60, true
  %62 = zext i1 %61 to i32
  %63 = sext i32 %62 to i64
  %64 = call i64 @llvm.expect.i64(i64 %63, i64 1)
  %65 = icmp ne i64 %64, 0
  br i1 %65, label %66, label %140

66:                                               ; preds = %58
  %67 = load ptr, ptr %6, align 8, !tbaa !16
  %68 = call i32 @H5P_peek(ptr noundef %67, ptr noundef @.str.19, ptr noundef %11)
  %69 = icmp slt i32 %68, 0
  br i1 %69, label %70, label %89

70:                                               ; preds = %66
  br label %71

71:                                               ; preds = %70
  br label %72

72:                                               ; preds = %71
  br label %73

73:                                               ; preds = %72
  %74 = load i64, ptr @H5E_PLIST_g, align 8, !tbaa !14
  %75 = load i64, ptr @H5E_CANTGET_g, align 8, !tbaa !14
  %76 = call i32 (ptr, ptr, i32, i64, i64, ptr, ...) @H5E_printf_stack(ptr noundef @.str.1, ptr noundef @__func__.H5P_modify_filter, i32 noundef 489, i64 noundef %74, i64 noundef %75, ptr noundef @.str.20)
  br label %77

77:                                               ; preds = %73
  br label %78

78:                                               ; preds = %77
  store i8 1, ptr %13, align 1, !tbaa !10
  %79 = load i8, ptr %13, align 1, !tbaa !10, !range !12, !noundef !13
  %80 = trunc i8 %79 to i1
  %81 = zext i1 %80 to i8
  store i8 %81, ptr %13, align 1, !tbaa !10
  br label %82

82:                                               ; preds = %78
  br label %83

83:                                               ; preds = %82
  br label %84

84:                                               ; preds = %83
  store i32 -1, ptr %12, align 4, !tbaa !8
  br label %139

85:                                               ; No predecessors!
  br label %86

86:                                               ; preds = %85
  br label %87

87:                                               ; preds = %86
  br label %88

88:                                               ; preds = %87
  br label %89

89:                                               ; preds = %88, %66
  %90 = load i32, ptr %7, align 4, !tbaa !8
  %91 = load i32, ptr %8, align 4, !tbaa !8
  %92 = load i64, ptr %9, align 8, !tbaa !14
  %93 = load ptr, ptr %10, align 8, !tbaa !18
  %94 = call i32 @H5Z_modify(ptr noundef %11, i32 noundef %90, i32 noundef %91, i64 noundef %92, ptr noundef %93)
  %95 = icmp slt i32 %94, 0
  br i1 %95, label %96, label %115

96:                                               ; preds = %89
  br label %97

97:                                               ; preds = %96
  br label %98

98:                                               ; preds = %97
  br label %99

99:                                               ; preds = %98
  %100 = load i64, ptr @H5E_PLINE_g, align 8, !tbaa !14
  %101 = load i64, ptr @H5E_CANTINIT_g, align 8, !tbaa !14
  %102 = call i32 (ptr, ptr, i32, i64, i64, ptr, ...) @H5E_printf_stack(ptr noundef @.str.1, ptr noundef @__func__.H5P_modify_filter, i32 noundef 493, i64 noundef %100, i64 noundef %101, ptr noundef @.str.21)
  br label %103

103:                                              ; preds = %99
  br label %104

104:                                              ; preds = %103
  store i8 1, ptr %13, align 1, !tbaa !10
  %105 = load i8, ptr %13, align 1, !tbaa !10, !range !12, !noundef !13
  %106 = trunc i8 %105 to i1
  %107 = zext i1 %106 to i8
  store i8 %107, ptr %13, align 1, !tbaa !10
  br label %108

108:                                              ; preds = %104
  br label %109

109:                                              ; preds = %108
  br label %110

110:                                              ; preds = %109
  store i32 -1, ptr %12, align 4, !tbaa !8
  br label %139

111:                                              ; No predecessors!
  br label %112

112:                                              ; preds = %111
  br label %113

113:                                              ; preds = %112
  br label %114

114:                                              ; preds = %113
  br label %115

115:                                              ; preds = %114, %89
  %116 = load ptr, ptr %6, align 8, !tbaa !16
  %117 = call i32 @H5P_poke(ptr noundef %116, ptr noundef @.str.19, ptr noundef %11)
  %118 = icmp slt i32 %117, 0
  br i1 %118, label %119, label %138

119:                                              ; preds = %115
  br label %120

120:                                              ; preds = %119
  br label %121

121:                                              ; preds = %120
  br label %122

122:                                              ; preds = %121
  %123 = load i64, ptr @H5E_PLIST_g, align 8, !tbaa !14
  %124 = load i64, ptr @H5E_CANTSET_g, align 8, !tbaa !14
  %125 = call i32 (ptr, ptr, i32, i64, i64, ptr, ...) @H5E_printf_stack(ptr noundef @.str.1, ptr noundef @__func__.H5P_modify_filter, i32 noundef 497, i64 noundef %123, i64 noundef %124, ptr noundef @.str.22)
  br label %126

126:                                              ; preds = %122
  br label %127

127:                                              ; preds = %126
  store i8 1, ptr %13, align 1, !tbaa !10
  %128 = load i8, ptr %13, align 1, !tbaa !10, !range !12, !noundef !13
  %129 = trunc i8 %128 to i1
  %130 = zext i1 %129 to i8
  store i8 %130, ptr %13, align 1, !tbaa !10
  br label %131

131:                                              ; preds = %127
  br label %132

132:                                              ; preds = %131
  br label %133

133:                                              ; preds = %132
  store i32 -1, ptr %12, align 4, !tbaa !8
  br label %139

134:                                              ; No predecessors!
  br label %135

135:                                              ; preds = %134
  br label %136

136:                                              ; preds = %135
  br label %137

137:                                              ; preds = %136
  br label %138

138:                                              ; preds = %137, %115
  br label %139

139:                                              ; preds = %138, %133, %110, %84, %45
  br label %140

140:                                              ; preds = %139, %58
  %141 = load i32, ptr %12, align 4, !tbaa !8
  call void @llvm.lifetime.end.p0(i64 1, ptr %13) #10
  call void @llvm.lifetime.end.p0(i64 4, ptr %12) #10
  call void @llvm.lifetime.end.p0(i64 72, ptr %11) #10
  ret i32 %141
}