; Function Attrs: nounwind uwtable
define range(i32 -1, 1) i32 @H5P_modify_filter(ptr noundef %0, i32 noundef %1, i32 noundef %2, i64 noundef %3, ptr noundef %4) local_unnamed_addr #0 {
  %6 = alloca %struct.H5O_pline_t, align 8
  call void @llvm.lifetime.start.p0(i64 72, ptr nonnull %6) #10
  %7 = load i8, ptr @H5P_init_g, align 1, !tbaa !3, !range !7, !noundef !8
  %8 = trunc nuw i8 %7 to i1
  %9 = load i8, ptr @H5_libterm_g, align 1, !range !7
  %10 = trunc nuw i8 %9 to i1
  %11 = select i1 %8, i1 true, i1 %10
  br i1 %11, label %19, label %12, !prof !9

12:                                               ; preds = %5
  store i8 1, ptr @H5P_init_g, align 1, !tbaa !3
  %13 = tail call i32 @H5P__init_package() #10
  %14 = icmp slt i32 %13, 0
  br i1 %14, label %15, label %._crit_edge

._crit_edge:                                      ; preds = %12
  %.pre = load i8, ptr @H5P_init_g, align 1, !tbaa !3, !range !7
  %.pre10 = load i8, ptr @H5_libterm_g, align 1, !range !7
  %.pre11 = trunc nuw i8 %.pre to i1
  %.pre12 = trunc nuw i8 %.pre10 to i1
  br label %19

15:                                               ; preds = %12
  store i8 0, ptr @H5P_init_g, align 1, !tbaa !3
  %16 = load i64, ptr @H5E_FUNC_g, align 8, !tbaa !10
  %17 = load i64, ptr @H5E_CANTINIT_g, align 8, !tbaa !10
  %18 = tail call i32 (ptr, ptr, i32, i64, i64, ptr, ...) @H5E_printf_stack(ptr noundef nonnull @.str.1, ptr noundef nonnull @__func__.H5P_modify_filter, i32 noundef 485, i64 noundef %16, i64 noundef %17, ptr noundef nonnull @.str.3) #10
  br label %43

19:                                               ; preds = %._crit_edge, %5
  %.pre-phi13 = phi i1 [ %.pre12, %._crit_edge ], [ %10, %5 ]
  %.pre-phi = phi i1 [ %.pre11, %._crit_edge ], [ %8, %5 ]
  %20 = xor i1 %.pre-phi13, true
  %21 = select i1 %.pre-phi, i1 true, i1 %20
  br i1 %21, label %22, label %43, !prof !9

22:                                               ; preds = %19
  %23 = call i32 @H5P_peek(ptr noundef %0, ptr noundef nonnull @.str.19, ptr noundef nonnull %6) #10
  %24 = icmp slt i32 %23, 0
  br i1 %24, label %25, label %29

25:                                               ; preds = %22
  %26 = load i64, ptr @H5E_PLIST_g, align 8, !tbaa !10
  %27 = load i64, ptr @H5E_CANTGET_g, align 8, !tbaa !10
  %28 = call i32 (ptr, ptr, i32, i64, i64, ptr, ...) @H5E_printf_stack(ptr noundef nonnull @.str.1, ptr noundef nonnull @__func__.H5P_modify_filter, i32 noundef 489, i64 noundef %26, i64 noundef %27, ptr noundef nonnull @.str.20) #10
  br label %43

29:                                               ; preds = %22
  %30 = call i32 @H5Z_modify(ptr noundef nonnull %6, i32 noundef %1, i32 noundef %2, i64 noundef %3, ptr noundef %4) #10
  %31 = icmp slt i32 %30, 0
  br i1 %31, label %32, label %36

32:                                               ; preds = %29
  %33 = load i64, ptr @H5E_PLINE_g, align 8, !tbaa !10
  %34 = load i64, ptr @H5E_CANTINIT_g, align 8, !tbaa !10
  %35 = call i32 (ptr, ptr, i32, i64, i64, ptr, ...) @H5E_printf_stack(ptr noundef nonnull @.str.1, ptr noundef nonnull @__func__.H5P_modify_filter, i32 noundef 493, i64 noundef %33, i64 noundef %34, ptr noundef nonnull @.str.21) #10
  br label %43

36:                                               ; preds = %29
  %37 = call i32 @H5P_poke(ptr noundef %0, ptr noundef nonnull @.str.19, ptr noundef nonnull %6) #10
  %38 = icmp slt i32 %37, 0
  br i1 %38, label %39, label %43

39:                                               ; preds = %36
  %40 = load i64, ptr @H5E_PLIST_g, align 8, !tbaa !10
  %41 = load i64, ptr @H5E_CANTSET_g, align 8, !tbaa !10
  %42 = call i32 (ptr, ptr, i32, i64, i64, ptr, ...) @H5E_printf_stack(ptr noundef nonnull @.str.1, ptr noundef nonnull @__func__.H5P_modify_filter, i32 noundef 497, i64 noundef %40, i64 noundef %41, ptr noundef nonnull @.str.22) #10
  br label %43

43:                                               ; preds = %15, %25, %32, %39, %36, %19
  %.0 = phi i32 [ -1, %15 ], [ -1, %25 ], [ -1, %32 ], [ -1, %39 ], [ 0, %36 ], [ 0, %19 ]
  call void @llvm.lifetime.end.p0(i64 72, ptr nonnull %6) #10
  ret i32 %.0
}